target datalayout = "e-m:e-p270:32:32-p271:32:32-p272:64:64-i64:64-i128:128-f80:128-n8:16:32:64-S128"
target triple = "x86_64-pc-linux-gnu"

%"class.clang::ast_matchers::internal::DynTypedMatcher" = type { i8, %"class.clang::ASTNodeKind", %"class.clang::ASTNodeKind", %"class.llvm::IntrusiveRefCntPtr.349" }
%"class.clang::ASTNodeKind" = type { i32 }
%"class.llvm::IntrusiveRefCntPtr.349" = type { ptr }

; Function Attrs: mustprogress nounwind uwtable
define linkonce_odr hidden void @_ZN5clang11ASTNodeKindC2ENS0_10NodeKindIdE(ptr noundef nonnull align 4 dereferenceable(4) %0, i32 noundef %1) unnamed_addr #0 comdat align 2 {
  %3 = alloca ptr, align 8
  %4 = alloca i32, align 4
  store ptr %0, ptr %3, align 8
  store i32 %1, ptr %4, align 4
  %5 = load ptr, ptr %3, align 8
  %6 = getelementptr inbounds nuw %"class.clang::ASTNodeKind", ptr %5, i32 0, i32 0
  %7 = load i32, ptr %4, align 4
  store i32 %7, ptr %6, align 4
  ret void
}

; Function Attrs: mustprogress nounwind uwtable
define linkonce_odr hidden noundef zeroext i1 @_ZNK5clang11ASTNodeKind6isSameES0_(ptr noundef nonnull align 4 dereferenceable(4) %0, i32 %1) #0 comdat align 2 {
  %3 = alloca %"class.clang::ASTNodeKind", align 4
  %4 = alloca ptr, align 8
  %5 = getelementptr inbounds nuw %"class.clang::ASTNodeKind", ptr %3, i32 0, i32 0
  store i32 %1, ptr %5, align 4
  store ptr %0, ptr %4, align 8
  %6 = load ptr, ptr %4, align 8
  %7 = getelementptr inbounds nuw %"class.clang::ASTNodeKind", ptr %6, i32 0, i32 0
  %8 = load i32, ptr %7, align 4
  %9 = icmp ne i32 %8, 0
  br i1 %9, label %10, label %16

10:                                               ; preds = %2
  %11 = getelementptr inbounds nuw %"class.clang::ASTNodeKind", ptr %6, i32 0, i32 0
  %12 = load i32, ptr %11, align 4
  %13 = getelementptr inbounds nuw %"class.clang::ASTNodeKind", ptr %3, i32 0, i32 0
  %14 = load i32, ptr %13, align 4
  %15 = icmp eq i32 %12, %14
  br label %16

16:                                               ; preds = %10, %2
  %17 = phi i1 [ false, %2 ], [ %15, %10 ]
  ret i1 %17
}

; Function Attrs: mustprogress nounwind uwtable
define linkonce_odr hidden i32 @_ZN5clang11ASTNodeKind15getFromNodeKindINS_4TypeEEES0_v() #0 comdat align 2 {
  %1 = alloca %"class.clang::ASTNodeKind", align 4
  call void @_ZN5clang11ASTNodeKindC2ENS0_10NodeKindIdE(ptr noundef nonnull align 4 dereferenceable(4) %1, i32 noundef 435)
  %2 = getelementptr inbounds nuw %"class.clang::ASTNodeKind", ptr %1, i32 0, i32 0
  %3 = load i32, ptr %2, align 4
  ret i32 %3
}

; Function Attrs: mustprogress nounwind uwtable
define linkonce_odr hidden i32 @_ZN5clang11ASTNodeKind15getFromNodeKindINS_8QualTypeEEES0_v() #0 comdat align 2 {
  %1 = alloca %"class.clang::ASTNodeKind", align 4
  call void @_ZN5clang11ASTNodeKindC2ENS0_10NodeKindIdE(ptr noundef nonnull align 4 dereferenceable(4) %1, i32 noundef 6)
  %2 = getelementptr inbounds nuw %"class.clang::ASTNodeKind", ptr %1, i32 0, i32 0
  %3 = load i32, ptr %2, align 4
  ret i32 %3
}

; Function Attrs: mustprogress nounwind uwtable
define linkonce_odr hidden i32 @_ZNK5clang12ast_matchers8internal15DynTypedMatcher16getSupportedKindEv(ptr noundef nonnull align 8 dereferenceable(24) %0) #0 comdat align 2 {
  %2 = alloca %"class.clang::ASTNodeKind", align 4
  %3 = alloca ptr, align 8
  store ptr %0, ptr %3, align 8
  %4 = load ptr, ptr %3, align 8
  %5 = getelementptr inbounds nuw %"class.clang::ast_matchers::internal::DynTypedMatcher", ptr %4, i32 0, i32 1
  call void @llvm.memcpy.p0.p0.i64(ptr align 4 %2, ptr align 4 %5, i64 4, i1 false)
  %6 = getelementptr inbounds nuw %"class.clang::ASTNodeKind", ptr %2, i32 0, i32 0
  %7 = load i32, ptr %6, align 4
  ret i32 %7
}

; Function Attrs: mustprogress nounwind uwtable
define dso_local noundef zeroext i1 @_ZNK5clang12ast_matchers8internal15DynTypedMatcher12canConvertToENS_11ASTNodeKindE(ptr noundef nonnull align 8 dereferenceable(24) %0, i32 %1) #0 align 2 {
  %3 = alloca i1, align 1
  %4 = alloca %"class.clang::ASTNodeKind", align 4
  %5 = alloca ptr, align 8
  %6 = alloca %"class.clang::ASTNodeKind", align 4
  %7 = alloca %"class.clang::ASTNodeKind", align 4
  %8 = alloca %"class.clang::ASTNodeKind", align 4
  %9 = alloca %"class.clang::ASTNodeKind", align 4
  %10 = alloca %"class.clang::ASTNodeKind", align 4
  %11 = alloca %"class.clang::ASTNodeKind", align 4
  %12 = getelementptr inbounds nuw %"class.clang::ASTNodeKind", ptr %4, i32 0, i32 0
  store i32 %1, ptr %12, align 4
  store ptr %0, ptr %5, align 8
  %13 = load ptr, ptr %5, align 8
  %14 = call i32 @_ZNK5clang12ast_matchers8internal15DynTypedMatcher16getSupportedKindEv(ptr noundef nonnull align 8 dereferenceable(24) %13)
  %15 = getelementptr inbounds nuw %"class.clang::ASTNodeKind", ptr %6, i32 0, i32 0
  store i32 %14, ptr %15, align 4
  %16 = call i32 @_ZN5clang11ASTNodeKind15getFromNodeKindINS_8QualTypeEEES0_v()
  %17 = getelementptr inbounds nuw %"class.clang::ASTNodeKind", ptr %7, i32 0, i32 0
  store i32 %16, ptr %17, align 4
  %18 = call i32 @_ZN5clang11ASTNodeKind15getFromNodeKindINS_4TypeEEES0_v()
  %19 = getelementptr inbounds nuw %"class.clang::ASTNodeKind", ptr %8, i32 0, i32 0
  store i32 %18, ptr %19, align 4
  call void @llvm.memcpy.p0.p0.i64(ptr align 4 %9, ptr align 4 %8, i64 4, i1 false)
  %20 = getelementptr inbounds nuw %"class.clang::ASTNodeKind", ptr %9, i32 0, i32 0
  %21 = load i32, ptr %20, align 4
  %22 = call noundef zeroext i1 @_ZNK5clang11ASTNodeKind6isSameES0_(ptr noundef nonnull align 4 dereferenceable(4) %6, i32 %21)
  br i1 %22, label %23, label %28

23:                                               ; preds = %2
  call void @llvm.memcpy.p0.p0.i64(ptr align 4 %10, ptr align 4 %7, i64 4, i1 false)
  %24 = getelementptr inbounds nuw %"class.clang::ASTNodeKind", ptr %10, i32 0, i32 0
  %25 = load i32, ptr %24, align 4
  %26 = call noundef zeroext i1 @_ZNK5clang11ASTNodeKind6isSameES0_(ptr noundef nonnull align 4 dereferenceable(4) %4, i32 %25)
  br i1 %26, label %27, label %28

27:                                               ; preds = %23
  store i1 true, ptr %3, align 1
  br label %32

28:                                               ; preds = %23, %2
  call void @llvm.memcpy.p0.p0.i64(ptr align 4 %11, ptr align 4 %4, i64 4, i1 false)
  %29 = getelementptr inbounds nuw %"class.clang::ASTNodeKind", ptr %11, i32 0, i32 0
  %30 = load i32, ptr %29, align 4
  %31 = call noundef zeroext i1 @_ZNK5clang11ASTNodeKind8isBaseOfES0_(ptr noundef nonnull align 4 dereferenceable(4) %6, i32 %30)
  store i1 %31, ptr %3, align 1
  br label %32

32:                                               ; preds = %28, %27
  %33 = load i1, ptr %3, align 1
  ret i1 %33
}