; Function Attrs: mustprogress nounwind uwtable
define dso_local noundef zeroext i1 @_ZNK5clang12ast_matchers8internal15DynTypedMatcher12canConvertToENS_11ASTNodeKindE(ptr nocapture noundef nonnull readonly align 8 dereferenceable(24) %0, i32 %1) local_unnamed_addr #2 align 2 {
  %3 = alloca %"class.clang::ASTNodeKind", align 4
  %4 = getelementptr inbounds nuw i8, ptr %0, i64 4
  %.sroa.0.0.copyload.i = load i32, ptr %4, align 4
  store i32 %.sroa.0.0.copyload.i, ptr %3, align 4
  %5 = icmp eq i32 %.sroa.0.0.copyload.i, 435
  %6 = icmp eq i32 %1, 6
  %or.cond = select i1 %5, i1 %6, i1 false
  br i1 %or.cond, label %9, label %7

7:                                                ; preds = %2
  %8 = call noundef zeroext i1 @_ZNK5clang11ASTNodeKind8isBaseOfES0_(ptr noundef nonnull align 4 dereferenceable(4) %3, i32 %1) #19
  br label %9

9:                                                ; preds = %2, %7
  %.0 = phi i1 [ %8, %7 ], [ true, %2 ]
  ret i1 %.0
}